target datalayout = "e-m:e-p270:32:32-p271:32:32-p272:64:64-i64:64-i128:128-f80:128-n8:16:32:64-S128"
target triple = "x86_64-pc-linux-gnu"

%struct.TuplesortPublic = type { ptr, ptr, ptr, ptr, ptr, ptr, ptr, ptr, ptr, i8, i32, ptr, ptr, i32, i8, ptr }
%struct.TuplesortIndexArg = type { ptr, ptr }
%struct.TuplesortIndexHashArg = type { %struct.TuplesortIndexArg, i32, i32, i32 }

@trace_sort = external global i8, align 1
@.str.1 = private unnamed_addr constant [20 x i8] c"tuplesortvariants.c\00", align 1
@CurrentMemoryContext = external global ptr, align 8
@.str.3 = private unnamed_addr constant [105 x i8] c"begin index sort: high_mask = 0x%x, low_mask = 0x%x, max_buckets = 0x%x, workMem = %d, randomAccess = %c\00", align 1
@__func__.tuplesort_begin_index_hash = private unnamed_addr constant [27 x i8] c"tuplesort_begin_index_hash\00", align 1

; Function Attrs: inlinehint nounwind uwtable
define internal ptr @MemoryContextSwitchTo(ptr noundef %0) #3 {
  %2 = alloca ptr, align 8
  %3 = alloca ptr, align 8
  store ptr %0, ptr %2, align 8
  call void @llvm.lifetime.start.p0(i64 8, ptr %3) #6
  %4 = load ptr, ptr @CurrentMemoryContext, align 8
  store ptr %4, ptr %3, align 8
  %5 = load ptr, ptr %2, align 8
  store ptr %5, ptr @CurrentMemoryContext, align 8
  %6 = load ptr, ptr %3, align 8
  call void @llvm.lifetime.end.p0(i64 8, ptr %3) #6
  ret ptr %6
}

; Function Attrs: nounwind uwtable
define dso_local ptr @tuplesort_begin_index_hash(ptr noundef %0, ptr noundef %1, i32 noundef %2, i32 noundef %3, i32 noundef %4, i32 noundef %5, ptr noundef %6, i32 noundef %7) #0 {
  %9 = alloca ptr, align 8
  %10 = alloca ptr, align 8
  %11 = alloca i32, align 4
  %12 = alloca i32, align 4
  %13 = alloca i32, align 4
  %14 = alloca i32, align 4
  %15 = alloca ptr, align 8
  %16 = alloca i32, align 4
  %17 = alloca ptr, align 8
  %18 = alloca ptr, align 8
  %19 = alloca ptr, align 8
  %20 = alloca ptr, align 8
  store ptr %0, ptr %9, align 8
  store ptr %1, ptr %10, align 8
  store i32 %2, ptr %11, align 4
  store i32 %3, ptr %12, align 4
  store i32 %4, ptr %13, align 4
  store i32 %5, ptr %14, align 4
  store ptr %6, ptr %15, align 8
  store i32 %7, ptr %16, align 4
  call void @llvm.lifetime.start.p0(i64 8, ptr %17) #6
  %21 = load i32, ptr %14, align 4
  %22 = load ptr, ptr %15, align 8
  %23 = load i32, ptr %16, align 4
  %24 = call ptr @tuplesort_begin_common(i32 noundef %21, ptr noundef %22, i32 noundef %23)
  store ptr %24, ptr %17, align 8
  call void @llvm.lifetime.start.p0(i64 8, ptr %18) #6
  %25 = load ptr, ptr %17, align 8
  store ptr %25, ptr %18, align 8
  call void @llvm.lifetime.start.p0(i64 8, ptr %19) #6
  call void @llvm.lifetime.start.p0(i64 8, ptr %20) #6
  %26 = load ptr, ptr %18, align 8
  %27 = getelementptr inbounds nuw %struct.TuplesortPublic, ptr %26, i32 0, i32 6
  %28 = load ptr, ptr %27, align 8
  %29 = call ptr @MemoryContextSwitchTo(ptr noundef %28)
  store ptr %29, ptr %19, align 8
  %30 = call ptr @palloc(i64 noundef 32)
  store ptr %30, ptr %20, align 8
  %31 = load i8, ptr @trace_sort, align 1, !range !4, !noundef !5
  %32 = trunc i8 %31 to i1
  br i1 %32, label %33, label %52

33:                                               ; preds = %8
  br label %34

34:                                               ; preds = %33
  br i1 false, label %35, label %37

35:                                               ; preds = %34
  %36 = call zeroext i1 @errstart_cold(i32 noundef 15, ptr noundef null) #7
  br i1 %36, label %39, label %49

37:                                               ; preds = %34
  %38 = call zeroext i1 @errstart(i32 noundef 15, ptr noundef null)
  br i1 %38, label %39, label %49

39:                                               ; preds = %37, %35
  %40 = load i32, ptr %11, align 4
  %41 = load i32, ptr %12, align 4
  %42 = load i32, ptr %13, align 4
  %43 = load i32, ptr %14, align 4
  %44 = load i32, ptr %16, align 4
  %45 = and i32 %44, 1
  %46 = icmp ne i32 %45, 0
  %47 = select i1 %46, i32 116, i32 102
  %48 = call i32 (ptr, ...) @errmsg_internal(ptr noundef @.str.3, i32 noundef %40, i32 noundef %41, i32 noundef %42, i32 noundef %43, i32 noundef %47)
  call void @errfinish(ptr noundef @.str.1, i32 noundef 457, ptr noundef @__func__.tuplesort_begin_index_hash)
  br label %49

49:                                               ; preds = %39, %37, %35
  br label %50

50:                                               ; preds = %49
  br label %51

51:                                               ; preds = %50
  br label %52

52:                                               ; preds = %51, %8
  %53 = load ptr, ptr %18, align 8
  %54 = getelementptr inbounds nuw %struct.TuplesortPublic, ptr %53, i32 0, i32 10
  store i32 1, ptr %54, align 4
  %55 = load ptr, ptr %18, align 8
  %56 = getelementptr inbounds nuw %struct.TuplesortPublic, ptr %55, i32 0, i32 2
  store ptr @removeabbrev_index, ptr %56, align 8
  %57 = load ptr, ptr %18, align 8
  %58 = getelementptr inbounds nuw %struct.TuplesortPublic, ptr %57, i32 0, i32 0
  store ptr @comparetup_index_hash, ptr %58, align 8
  %59 = load ptr, ptr %18, align 8
  %60 = getelementptr inbounds nuw %struct.TuplesortPublic, ptr %59, i32 0, i32 1
  store ptr @comparetup_index_hash_tiebreak, ptr %60, align 8
  %61 = load ptr, ptr %18, align 8
  %62 = getelementptr inbounds nuw %struct.TuplesortPublic, ptr %61, i32 0, i32 3
  store ptr @writetup_index, ptr %62, align 8
  %63 = load ptr, ptr %18, align 8
  %64 = getelementptr inbounds nuw %struct.TuplesortPublic, ptr %63, i32 0, i32 4
  store ptr @readtup_index, ptr %64, align 8
  %65 = load ptr, ptr %18, align 8
  %66 = getelementptr inbounds nuw %struct.TuplesortPublic, ptr %65, i32 0, i32 9
  store i8 1, ptr %66, align 8
  %67 = load ptr, ptr %20, align 8
  %68 = load ptr, ptr %18, align 8
  %69 = getelementptr inbounds nuw %struct.TuplesortPublic, ptr %68, i32 0, i32 15
  store ptr %67, ptr %69, align 8
  %70 = load ptr, ptr %9, align 8
  %71 = load ptr, ptr %20, align 8
  %72 = getelementptr inbounds nuw %struct.TuplesortIndexHashArg, ptr %71, i32 0, i32 0
  %73 = getelementptr inbounds nuw %struct.TuplesortIndexArg, ptr %72, i32 0, i32 0
  store ptr %70, ptr %73, align 8
  %74 = load ptr, ptr %10, align 8
  %75 = load ptr, ptr %20, align 8
  %76 = getelementptr inbounds nuw %struct.TuplesortIndexHashArg, ptr %75, i32 0, i32 0
  %77 = getelementptr inbounds nuw %struct.TuplesortIndexArg, ptr %76, i32 0, i32 1
  store ptr %74, ptr %77, align 8
  %78 = load i32, ptr %11, align 4
  %79 = load ptr, ptr %20, align 8
  %80 = getelementptr inbounds nuw %struct.TuplesortIndexHashArg, ptr %79, i32 0, i32 1
  store i32 %78, ptr %80, align 8
  %81 = load i32, ptr %12, align 4
  %82 = load ptr, ptr %20, align 8
  %83 = getelementptr inbounds nuw %struct.TuplesortIndexHashArg, ptr %82, i32 0, i32 2
  store i32 %81, ptr %83, align 4
  %84 = load i32, ptr %13, align 4
  %85 = load ptr, ptr %20, align 8
  %86 = getelementptr inbounds nuw %struct.TuplesortIndexHashArg, ptr %85, i32 0, i32 3
  store i32 %84, ptr %86, align 8
  %87 = load ptr, ptr %19, align 8
  %88 = call ptr @MemoryContextSwitchTo(ptr noundef %87)
  %89 = load ptr, ptr %17, align 8
  call void @llvm.lifetime.end.p0(i64 8, ptr %20) #6
  call void @llvm.lifetime.end.p0(i64 8, ptr %19) #6
  call void @llvm.lifetime.end.p0(i64 8, ptr %18) #6
  call void @llvm.lifetime.end.p0(i64 8, ptr %17) #6
  ret ptr %89
}