; Function Attrs: nounwind uwtable
define dso_local ptr @tuplesort_begin_index_hash(ptr noundef %0, ptr noundef %1, i32 noundef %2, i32 noundef %3, i32 noundef %4, i32 noundef %5, ptr noundef %6, i32 noundef %7) local_unnamed_addr #0 {
  %9 = tail call ptr @tuplesort_begin_common(i32 noundef %5, ptr noundef %6, i32 noundef %7) #12
  %10 = getelementptr inbounds nuw i8, ptr %9, i64 48
  %11 = load ptr, ptr %10, align 8
  %12 = load ptr, ptr @CurrentMemoryContext, align 8
  store ptr %11, ptr @CurrentMemoryContext, align 8
  %13 = tail call ptr @palloc(i64 noundef 32) #12
  %14 = load i8, ptr @trace_sort, align 1, !range !4, !noundef !5
  %15 = trunc nuw i8 %14 to i1
  br i1 %15, label %16, label %22

16:                                               ; preds = %8
  %17 = tail call zeroext i1 @errstart(i32 noundef 15, ptr noundef null) #12
  br i1 %17, label %18, label %22

18:                                               ; preds = %16
  %19 = and i32 %7, 1
  %.not = icmp eq i32 %19, 0
  %20 = select i1 %.not, i32 102, i32 116
  %21 = tail call i32 (ptr, ...) @errmsg_internal(ptr noundef nonnull @.str.3, i32 noundef %2, i32 noundef %3, i32 noundef %4, i32 noundef %5, i32 noundef %20) #12
  tail call void @errfinish(ptr noundef nonnull @.str.1, i32 noundef 457, ptr noundef nonnull @__func__.tuplesort_begin_index_hash) #12
  br label %22

22:                                               ; preds = %16, %18, %8
  %23 = getelementptr inbounds nuw i8, ptr %9, i64 76
  store i32 1, ptr %23, align 4
  %24 = getelementptr inbounds nuw i8, ptr %9, i64 16
  store ptr @removeabbrev_index, ptr %24, align 8
  store ptr @comparetup_index_hash, ptr %9, align 8
  %25 = getelementptr inbounds nuw i8, ptr %9, i64 8
  store ptr @comparetup_index_hash_tiebreak, ptr %25, align 8
  %26 = getelementptr inbounds nuw i8, ptr %9, i64 24
  store ptr @writetup_index, ptr %26, align 8
  %27 = getelementptr inbounds nuw i8, ptr %9, i64 32
  store ptr @readtup_index, ptr %27, align 8
  %28 = getelementptr inbounds nuw i8, ptr %9, i64 72
  store i8 1, ptr %28, align 8
  %29 = getelementptr inbounds nuw i8, ptr %9, i64 104
  store ptr %13, ptr %29, align 8
  store ptr %0, ptr %13, align 8
  %30 = getelementptr inbounds nuw i8, ptr %13, i64 8
  store ptr %1, ptr %30, align 8
  %31 = getelementptr inbounds nuw i8, ptr %13, i64 16
  store i32 %2, ptr %31, align 8
  %32 = getelementptr inbounds nuw i8, ptr %13, i64 20
  store i32 %3, ptr %32, align 4
  %33 = getelementptr inbounds nuw i8, ptr %13, i64 24
  store i32 %4, ptr %33, align 8
  store ptr %12, ptr @CurrentMemoryContext, align 8
  ret ptr %9
}